target datalayout = "e-m:e-p270:32:32-p271:32:32-p272:64:64-i64:64-i128:128-f80:128-n8:16:32:64-S128"
target triple = "x86_64-pc-linux-gnu"

%struct.SlruCtlData = type { ptr, i16, i8, i32, ptr, [64 x i8] }
%struct.CommitTimestampShared = type { i32, %struct.CommitTimestampEntry, i8 }
%struct.CommitTimestampEntry = type { i64, i16 }
%union.LWLockPadded = type { %struct.LWLock, [112 x i8] }
%struct.LWLock = type { i16, %struct.pg_atomic_uint32, %struct.proclist_head }
%struct.pg_atomic_uint32 = type { i32 }
%struct.proclist_head = type { i32, i32 }
%struct.SlruSharedData = type { i32, ptr, ptr, ptr, ptr, ptr, ptr, ptr, ptr, ptr, i32, %struct.pg_atomic_uint64, i32 }
%struct.pg_atomic_uint64 = type { i64 }

@commitTsShared = internal global ptr null, align 8
@CommitTsCtlData = internal global %struct.SlruCtlData zeroinitializer, align 8
@InRecovery = external global i8, align 1

; Function Attrs: nounwind uwtable
define internal void @WriteZeroPageXlogRec(i64 noundef %0) #0 {
  %2 = alloca i64, align 8
  store i64 %0, ptr %2, align 8
  call void @XLogBeginInsert()
  call void @XLogRegisterData(ptr noundef %2, i32 noundef 8)
  %3 = call i64 @XLogInsert(i8 noundef zeroext 18, i8 noundef zeroext 0)
  ret void
}

; Function Attrs: nounwind uwtable
define internal i32 @ZeroCommitTsPage(i64 noundef %0, i1 noundef zeroext %1) #0 {
  %3 = alloca i64, align 8
  %4 = alloca i8, align 1
  %5 = alloca i32, align 4
  store i64 %0, ptr %3, align 8
  %6 = zext i1 %1 to i8
  store i8 %6, ptr %4, align 1
  call void @llvm.lifetime.start.p0(i64 4, ptr %5) #7
  %7 = load i64, ptr %3, align 8
  %8 = call i32 @SimpleLruZeroPage(ptr noundef @CommitTsCtlData, i64 noundef %7)
  store i32 %8, ptr %5, align 4
  %9 = load i8, ptr %4, align 1, !range !4, !noundef !5
  %10 = trunc i8 %9 to i1
  br i1 %10, label %11, label %13

11:                                               ; preds = %2
  %12 = load i64, ptr %3, align 8
  call void @WriteZeroPageXlogRec(i64 noundef %12)
  br label %13

13:                                               ; preds = %11, %2
  %14 = load i32, ptr %5, align 4
  call void @llvm.lifetime.end.p0(i64 4, ptr %5) #7
  ret i32 %14
}

; Function Attrs: inlinehint nounwind uwtable
define internal ptr @SimpleLruGetBankLock(ptr noundef %0, i64 noundef %1) #2 {
  %3 = alloca ptr, align 8
  %4 = alloca i64, align 8
  %5 = alloca i32, align 4
  store ptr %0, ptr %3, align 8
  store i64 %1, ptr %4, align 8
  call void @llvm.lifetime.start.p0(i64 4, ptr %5) #7
  %6 = load i64, ptr %4, align 8
  %7 = load ptr, ptr %3, align 8
  %8 = getelementptr inbounds nuw %struct.SlruCtlData, ptr %7, i32 0, i32 1
  %9 = load i16, ptr %8, align 8
  %10 = zext i16 %9 to i64
  %11 = srem i64 %6, %10
  %12 = trunc i64 %11 to i32
  store i32 %12, ptr %5, align 4
  %13 = load ptr, ptr %3, align 8
  %14 = getelementptr inbounds nuw %struct.SlruCtlData, ptr %13, i32 0, i32 0
  %15 = load ptr, ptr %14, align 8
  %16 = getelementptr inbounds nuw %struct.SlruSharedData, ptr %15, i32 0, i32 7
  %17 = load ptr, ptr %16, align 8
  %18 = load i32, ptr %5, align 4
  %19 = sext i32 %18 to i64
  %20 = getelementptr inbounds %union.LWLockPadded, ptr %17, i64 %19
  call void @llvm.lifetime.end.p0(i64 4, ptr %5) #7
  ret ptr %20
}

; Function Attrs: inlinehint nounwind uwtable
define internal i64 @TransactionIdToCTsPage(i32 noundef %0) #2 {
  %2 = alloca i32, align 4
  store i32 %0, ptr %2, align 4
  %3 = load i32, ptr %2, align 4
  %4 = zext i32 %3 to i64
  %5 = sdiv i64 %4, 819
  ret i64 %5
}

; Function Attrs: nounwind uwtable
define dso_local void @ExtendCommitTs(i32 noundef %0) #0 {
  %2 = alloca i32, align 4
  %3 = alloca i64, align 8
  %4 = alloca ptr, align 8
  %5 = alloca i32, align 4
  store i32 %0, ptr %2, align 4
  call void @llvm.lifetime.start.p0(i64 8, ptr %3) #7
  call void @llvm.lifetime.start.p0(i64 8, ptr %4) #7
  %6 = load ptr, ptr @commitTsShared, align 8
  %7 = getelementptr inbounds nuw %struct.CommitTimestampShared, ptr %6, i32 0, i32 2
  %8 = load i8, ptr %7, align 8, !range !4, !noundef !5
  %9 = trunc i8 %8 to i1
  br i1 %9, label %11, label %10

10:                                               ; preds = %1
  store i32 1, ptr %5, align 4
  br label %32

11:                                               ; preds = %1
  %12 = load i32, ptr %2, align 4
  %13 = urem i32 %12, 819
  %14 = icmp ne i32 %13, 0
  br i1 %14, label %15, label %19

15:                                               ; preds = %11
  %16 = load i32, ptr %2, align 4
  %17 = icmp eq i32 %16, 3
  br i1 %17, label %19, label %18

18:                                               ; preds = %15
  store i32 1, ptr %5, align 4
  br label %32

19:                                               ; preds = %15, %11
  %20 = load i32, ptr %2, align 4
  %21 = call i64 @TransactionIdToCTsPage(i32 noundef %20)
  store i64 %21, ptr %3, align 8
  %22 = load i64, ptr %3, align 8
  %23 = call ptr @SimpleLruGetBankLock(ptr noundef @CommitTsCtlData, i64 noundef %22)
  store ptr %23, ptr %4, align 8
  %24 = load ptr, ptr %4, align 8
  %25 = call zeroext i1 @LWLockAcquire(ptr noundef %24, i32 noundef 0)
  %26 = load i64, ptr %3, align 8
  %27 = load i8, ptr @InRecovery, align 1, !range !4, !noundef !5
  %28 = trunc i8 %27 to i1
  %29 = xor i1 %28, true
  %30 = call i32 @ZeroCommitTsPage(i64 noundef %26, i1 noundef zeroext %29)
  %31 = load ptr, ptr %4, align 8
  call void @LWLockRelease(ptr noundef %31)
  store i32 0, ptr %5, align 4
  br label %32

32:                                               ; preds = %19, %18, %10
  call void @llvm.lifetime.end.p0(i64 8, ptr %4) #7
  call void @llvm.lifetime.end.p0(i64 8, ptr %3) #7
  %33 = load i32, ptr %5, align 4
  switch i32 %33, label %35 [
    i32 0, label %34
    i32 1, label %34
  ]

34:                                               ; preds = %32, %32
  ret void

35:                                               ; preds = %32
  unreachable
}