; Function Attrs: nounwind uwtable
define dso_local void @ExtendCommitTs(i32 noundef %0) local_unnamed_addr #0 {
  %2 = alloca i64, align 8
  %3 = load ptr, ptr @commitTsShared, align 8
  %4 = getelementptr inbounds nuw i8, ptr %3, i64 24
  %5 = load i8, ptr %4, align 8, !range !4, !noundef !5
  %6 = trunc nuw i8 %5 to i1
  br i1 %6, label %7, label %28

7:                                                ; preds = %1
  %8 = urem i32 %0, 819
  %9 = udiv i32 %0, 819
  %10 = icmp eq i32 %8, 0
  %11 = icmp eq i32 %0, 3
  %or.cond = or i1 %11, %10
  br i1 %or.cond, label %12, label %28

12:                                               ; preds = %7
  %13 = zext nneg i32 %9 to i64
  %14 = load i16, ptr getelementptr inbounds nuw (i8, ptr @CommitTsCtlData, i64 8), align 8
  %.rhs.trunc = zext i16 %14 to i32
  %15 = urem i32 %9, %.rhs.trunc
  %16 = load ptr, ptr @CommitTsCtlData, align 8
  %17 = getelementptr inbounds nuw i8, ptr %16, i64 56
  %18 = load ptr, ptr %17, align 8
  %19 = shl nuw nsw i32 %15, 7
  %20 = zext nneg i32 %19 to i64
  %21 = getelementptr inbounds nuw i8, ptr %18, i64 %20
  %22 = tail call zeroext i1 @LWLockAcquire(ptr noundef %21, i32 noundef 0) #9
  %23 = load i8, ptr @InRecovery, align 1, !range !4, !noundef !5
  %24 = trunc nuw i8 %23 to i1
  %25 = tail call i32 @SimpleLruZeroPage(ptr noundef nonnull @CommitTsCtlData, i64 noundef %13) #9
  br i1 %24, label %ZeroCommitTsPage.exit, label %26

26:                                               ; preds = %12
  call void @llvm.lifetime.start.p0(i64 8, ptr nonnull %2)
  store i64 %13, ptr %2, align 8
  tail call void @XLogBeginInsert() #9
  call void @XLogRegisterData(ptr noundef nonnull %2, i32 noundef 8) #9
  %27 = call i64 @XLogInsert(i8 noundef zeroext 18, i8 noundef zeroext 0) #9
  call void @llvm.lifetime.end.p0(i64 8, ptr nonnull %2)
  br label %ZeroCommitTsPage.exit

ZeroCommitTsPage.exit:                            ; preds = %12, %26
  call void @LWLockRelease(ptr noundef %21) #9
  br label %28

28:                                               ; preds = %7, %1, %ZeroCommitTsPage.exit
  ret void
}